; ModuleID = 'source-C-CXX/6/15.c'
source_filename = "source-C-CXX/6/15.c"
target datalayout = "e-m:e-p270:32:32-p271:32:32-p272:64:64-i64:64-f80:128-n8:16:32:64-S128"
target triple = "x86_64-pc-linux-gnu"

@.str = private unnamed_addr constant [3 x i8] c"%s\00", align 1

; Function Attrs: nofree nounwind sspstrong uwtable
define dso_local i32 @main() local_unnamed_addr #0 {
  %1 = alloca [256 x i8], align 16
  %2 = alloca [256 x i8], align 16
  %3 = alloca [256 x i8], align 16
  %4 = getelementptr inbounds [256 x i8], [256 x i8]* %3, i64 0, i64 0
  %5 = alloca [256 x i8], align 16
  %6 = getelementptr inbounds [256 x i8], [256 x i8]* %5, i64 0, i64 0
  %7 = getelementptr inbounds [256 x i8], [256 x i8]* %1, i64 0, i64 0
  call void @llvm.lifetime.start.p0i8(i64 256, i8* nonnull %7) #5
  %8 = getelementptr inbounds [256 x i8], [256 x i8]* %2, i64 0, i64 0
  call void @llvm.lifetime.start.p0i8(i64 256, i8* nonnull %8) #5
  %9 = getelementptr inbounds [256 x i8], [256 x i8]* %3, i64 0, i64 0
  call void @llvm.lifetime.start.p0i8(i64 256, i8* nonnull %9) #5
  %10 = getelementptr inbounds [256 x i8], [256 x i8]* %5, i64 0, i64 0
  call void @llvm.lifetime.start.p0i8(i64 256, i8* nonnull %10) #5
  %11 = call i32 (i8*, ...) @__isoc99_scanf(i8* getelementptr inbounds ([3 x i8], [3 x i8]* @.str, i64 0, i64 0), i8* nonnull %8)
  %12 = call i32 (i8*, ...) @__isoc99_scanf(i8* getelementptr inbounds ([3 x i8], [3 x i8]* @.str, i64 0, i64 0), i8* nonnull %7)
  %13 = call i32 (i8*, ...) @__isoc99_scanf(i8* getelementptr inbounds ([3 x i8], [3 x i8]* @.str, i64 0, i64 0), i8* nonnull %9)
  %14 = call i64 @strlen(i8* noundef nonnull %7) #6
  %15 = load i8, i8* %8, align 16, !tbaa !5
  %16 = icmp eq i8 %15, 0
  br i1 %16, label %49, label %17

17:                                               ; preds = %0
  %18 = trunc i64 %14 to i32
  %19 = icmp sgt i32 %18, 0
  br i1 %19, label %20, label %34

20:                                               ; preds = %17
  %21 = and i64 %14, 4294967295
  %22 = and i64 %14, 4294967295
  %23 = getelementptr inbounds [256 x i8], [256 x i8]* %5, i64 0, i64 %22
  br label %24

24:                                               ; preds = %20, %29
  %25 = phi i64 [ 0, %20 ], [ %30, %29 ]
  %26 = getelementptr [256 x i8], [256 x i8]* %2, i64 0, i64 %25
  call void @llvm.memcpy.p0i8.p0i8.i64(i8* nonnull align 16 %6, i8* align 1 %26, i64 %21, i1 false)
  store i8 0, i8* %23, align 1, !tbaa !5
  %27 = call i32 @strcmp(i8* noundef nonnull %7, i8* noundef nonnull %10) #6
  %28 = icmp eq i32 %27, 0
  br i1 %28, label %38, label %29

29:                                               ; preds = %24
  %30 = add nuw i64 %25, 1
  %31 = getelementptr inbounds [256 x i8], [256 x i8]* %2, i64 0, i64 %30
  %32 = load i8, i8* %31, align 1, !tbaa !5
  %33 = icmp eq i8 %32, 0
  br i1 %33, label %49, label %24, !llvm.loop !8

34:                                               ; preds = %17, %44
  %35 = phi i64 [ %45, %44 ], [ 0, %17 ]
  store i8 0, i8* %10, align 16, !tbaa !5
  %36 = call i32 @strcmp(i8* noundef nonnull %7, i8* noundef nonnull %10) #6
  %37 = icmp eq i32 %36, 0
  br i1 %37, label %38, label %44

38:                                               ; preds = %34, %24
  %39 = phi i64 [ %25, %24 ], [ %35, %34 ]
  br i1 %19, label %40, label %49

40:                                               ; preds = %38
  %41 = and i64 %39, 4294967295
  %42 = getelementptr [256 x i8], [256 x i8]* %2, i64 0, i64 %41
  %43 = and i64 %14, 4294967295
  call void @llvm.memcpy.p0i8.p0i8.i64(i8* align 1 %42, i8* nonnull align 16 %4, i64 %43, i1 false)
  br label %49

44:                                               ; preds = %34
  %45 = add nuw i64 %35, 1
  %46 = getelementptr inbounds [256 x i8], [256 x i8]* %2, i64 0, i64 %45
  %47 = load i8, i8* %46, align 1, !tbaa !5
  %48 = icmp eq i8 %47, 0
  br i1 %48, label %49, label %34, !llvm.loop !8

49:                                               ; preds = %44, %29, %40, %0, %38
  %50 = call i32 (i8*, ...) @printf(i8* nonnull dereferenceable(1) getelementptr inbounds ([3 x i8], [3 x i8]* @.str, i64 0, i64 0), i8* nonnull %8)
  call void @llvm.lifetime.end.p0i8(i64 256, i8* nonnull %10) #5
  call void @llvm.lifetime.end.p0i8(i64 256, i8* nonnull %9) #5
  call void @llvm.lifetime.end.p0i8(i64 256, i8* nonnull %8) #5
  call void @llvm.lifetime.end.p0i8(i64 256, i8* nonnull %7) #5
  ret i32 0
}

; Function Attrs: argmemonly mustprogress nofree nosync nounwind willreturn
declare void @llvm.lifetime.start.p0i8(i64 immarg, i8* nocapture) #1

; Function Attrs: nofree nounwind
declare noundef i32 @__isoc99_scanf(i8* nocapture noundef readonly, ...) local_unnamed_addr #2

; Function Attrs: argmemonly mustprogress nofree nounwind readonly willreturn
declare i64 @strlen(i8* nocapture) local_unnamed_addr #3

; Function Attrs: argmemonly mustprogress nofree nounwind readonly willreturn
declare i32 @strcmp(i8* nocapture, i8* nocapture) local_unnamed_addr #3

; Function Attrs: nofree nounwind
declare noundef i32 @printf(i8* nocapture noundef readonly, ...) local_unnamed_addr #2

; Function Attrs: argmemonly mustprogress nofree nosync nounwind willreturn
declare void @llvm.lifetime.end.p0i8(i64 immarg, i8* nocapture) #1

; Function Attrs: argmemonly nofree nounwind willreturn
declare void @llvm.memcpy.p0i8.p0i8.i64(i8* noalias nocapture writeonly, i8* noalias nocapture readonly, i64, i1 immarg) #4


!llvm.module.flags = !{!0, !1, !2, !3}
!llvm.ident = !{!4}

!0 = !{i32 1, !"wchar_size", i32 4}
!1 = !{i32 7, !"PIC Level", i32 2}
!2 = !{i32 7, !"PIE Level", i32 2}
!3 = !{i32 7, !"uwtable", i32 1}
!4 = !{!"clang version 13.0.0"}
!5 = !{!6, !6, i64 0}
!6 = !{!"omnipotent char", !7, i64 0}
!7 = !{!"Simple C/C++ TBAA"}
!8 = distinct !{!8, !9}
!9 = !{!"llvm.loop.mustprogress"}
